target datalayout = "e-m:e-p270:32:32-p271:32:32-p272:64:64-i64:64-i128:128-f80:128-n8:16:32:64-S128"
target triple = "x86_64-pc-linux-gnu"

%struct.config_set = type { %struct.hashmap, i32, %struct.configset_list }
%struct.hashmap = type { ptr, ptr, ptr, i32, i32, i32, i32, i8 }
%struct.configset_list = type { ptr, i32, i32 }
%struct.config_set_element = type { %struct.hashmap_entry, ptr, %struct.string_list }
%struct.hashmap_entry = type { ptr, i32 }
%struct.string_list = type { ptr, i64, i64, i8, ptr }

; Function Attrs: inlinehint nounwind uwtable
define internal ptr @container_of_or_null_offset(ptr noundef %0, i64 noundef %1) #6 {
  %3 = alloca ptr, align 8
  %4 = alloca i64, align 8
  store ptr %0, ptr %3, align 8, !tbaa !30
  store i64 %1, ptr %4, align 8, !tbaa !19
  %5 = load ptr, ptr %3, align 8, !tbaa !30
  %6 = icmp ne ptr %5, null
  br i1 %6, label %7, label %12

7:                                                ; preds = %2
  %8 = load ptr, ptr %3, align 8, !tbaa !30
  %9 = load i64, ptr %4, align 8, !tbaa !19
  %10 = sub i64 0, %9
  %11 = getelementptr inbounds i8, ptr %8, i64 %10
  br label %13

12:                                               ; preds = %2
  br label %13

13:                                               ; preds = %12, %7
  %14 = phi ptr [ %11, %7 ], [ null, %12 ]
  ret ptr %14
}

; Function Attrs: inlinehint nounwind uwtable
define internal void @hashmap_entry_init(ptr noundef %0, i32 noundef %1) #6 {
  %3 = alloca ptr, align 8
  %4 = alloca i32, align 4
  store ptr %0, ptr %3, align 8, !tbaa !115
  store i32 %1, ptr %4, align 4, !tbaa !13
  %5 = load i32, ptr %4, align 4, !tbaa !13
  %6 = load ptr, ptr %3, align 8, !tbaa !115
  %7 = getelementptr inbounds nuw %struct.hashmap_entry, ptr %6, i32 0, i32 1
  store i32 %5, ptr %7, align 8, !tbaa !227
  %8 = load ptr, ptr %3, align 8, !tbaa !115
  %9 = getelementptr inbounds nuw %struct.hashmap_entry, ptr %8, i32 0, i32 0
  store ptr null, ptr %9, align 8, !tbaa !228
  ret void
}

; Function Attrs: nounwind uwtable
define internal i32 @configset_find_element(ptr noundef %0, ptr noundef %1, ptr noundef %2) #0 {
  %4 = alloca i32, align 4
  %5 = alloca ptr, align 8
  %6 = alloca ptr, align 8
  %7 = alloca ptr, align 8
  %8 = alloca %struct.config_set_element, align 8
  %9 = alloca ptr, align 8
  %10 = alloca ptr, align 8
  %11 = alloca i32, align 4
  %12 = alloca i32, align 4
  store ptr %0, ptr %5, align 8, !tbaa !107
  store ptr %1, ptr %6, align 8, !tbaa !4
  store ptr %2, ptr %7, align 8, !tbaa !139
  call void @llvm.lifetime.start.p0(i64 64, ptr %8) #13
  call void @llvm.lifetime.start.p0(i64 8, ptr %9) #13
  call void @llvm.lifetime.start.p0(i64 8, ptr %10) #13
  call void @llvm.lifetime.start.p0(i64 4, ptr %11) #13
  %13 = load ptr, ptr %6, align 8, !tbaa !4
  %14 = call i32 @git_config_parse_key(ptr noundef %13, ptr noundef %10, ptr noundef null)
  store i32 %14, ptr %11, align 4, !tbaa !13
  %15 = load i32, ptr %11, align 4, !tbaa !13
  %16 = icmp ne i32 %15, 0
  br i1 %16, label %17, label %19

17:                                               ; preds = %3
  %18 = load i32, ptr %11, align 4, !tbaa !13
  store i32 %18, ptr %4, align 4
  store i32 1, ptr %12, align 4
  br label %33

19:                                               ; preds = %3
  %20 = getelementptr inbounds nuw %struct.config_set_element, ptr %8, i32 0, i32 0
  %21 = load ptr, ptr %10, align 8, !tbaa !4
  %22 = call i32 @strhash(ptr noundef %21)
  call void @hashmap_entry_init(ptr noundef %20, i32 noundef %22)
  %23 = load ptr, ptr %10, align 8, !tbaa !4
  %24 = getelementptr inbounds nuw %struct.config_set_element, ptr %8, i32 0, i32 1
  store ptr %23, ptr %24, align 8, !tbaa !119
  %25 = load ptr, ptr %5, align 8, !tbaa !107
  %26 = getelementptr inbounds nuw %struct.config_set, ptr %25, i32 0, i32 0
  %27 = getelementptr inbounds nuw %struct.config_set_element, ptr %8, i32 0, i32 0
  %28 = call ptr @hashmap_get(ptr noundef %26, ptr noundef %27, ptr noundef null)
  %29 = call ptr @container_of_or_null_offset(ptr noundef %28, i64 noundef 0)
  store ptr %29, ptr %9, align 8, !tbaa !117
  %30 = load ptr, ptr %10, align 8, !tbaa !4
  call void @free(ptr noundef %30) #13
  %31 = load ptr, ptr %9, align 8, !tbaa !117
  %32 = load ptr, ptr %7, align 8, !tbaa !139
  store ptr %31, ptr %32, align 8, !tbaa !117
  store i32 0, ptr %4, align 4
  store i32 1, ptr %12, align 4
  br label %33

33:                                               ; preds = %19, %17
  call void @llvm.lifetime.end.p0(i64 4, ptr %11) #13
  call void @llvm.lifetime.end.p0(i64 8, ptr %10) #13
  call void @llvm.lifetime.end.p0(i64 8, ptr %9) #13
  call void @llvm.lifetime.end.p0(i64 64, ptr %8) #13
  %34 = load i32, ptr %4, align 4
  ret i32 %34
}

; Function Attrs: nounwind uwtable
define dso_local i32 @git_configset_get(ptr noundef %0, ptr noundef %1) #0 {
  %3 = alloca i32, align 4
  %4 = alloca ptr, align 8
  %5 = alloca ptr, align 8
  %6 = alloca ptr, align 8
  %7 = alloca i32, align 4
  %8 = alloca i32, align 4
  store ptr %0, ptr %4, align 8, !tbaa !107
  store ptr %1, ptr %5, align 8, !tbaa !4
  call void @llvm.lifetime.start.p0(i64 8, ptr %6) #13
  call void @llvm.lifetime.start.p0(i64 4, ptr %7) #13
  %9 = load ptr, ptr %4, align 8, !tbaa !107
  %10 = load ptr, ptr %5, align 8, !tbaa !4
  %11 = call i32 @configset_find_element(ptr noundef %9, ptr noundef %10, ptr noundef %6)
  store i32 %11, ptr %7, align 4, !tbaa !13
  %12 = icmp ne i32 %11, 0
  br i1 %12, label %13, label %15

13:                                               ; preds = %2
  %14 = load i32, ptr %7, align 4, !tbaa !13
  store i32 %14, ptr %3, align 4
  store i32 1, ptr %8, align 4
  br label %21

15:                                               ; preds = %2
  %16 = load ptr, ptr %6, align 8, !tbaa !117
  %17 = icmp ne ptr %16, null
  br i1 %17, label %19, label %18

18:                                               ; preds = %15
  store i32 1, ptr %3, align 4
  store i32 1, ptr %8, align 4
  br label %21

19:                                               ; preds = %15
  br label %20

20:                                               ; preds = %19
  store i32 0, ptr %3, align 4
  store i32 1, ptr %8, align 4
  br label %21

21:                                               ; preds = %20, %18, %13
  call void @llvm.lifetime.end.p0(i64 4, ptr %7) #13
  call void @llvm.lifetime.end.p0(i64 8, ptr %6) #13
  %22 = load i32, ptr %3, align 4
  ret i32 %22
}