; Function Attrs: nounwind uwtable
define dso_local range(i32 -2, 2) i32 @git_configset_get(ptr noundef %0, ptr noundef %1) local_unnamed_addr #0 {
  %3 = alloca %struct.config_set_element, align 8
  %4 = alloca ptr, align 8
  call void @llvm.lifetime.start.p0(i64 64, ptr nonnull %3) #30
  call void @llvm.lifetime.start.p0(i64 8, ptr nonnull %4) #30
  %5 = call i32 @git_config_parse_key(ptr noundef %1, ptr noundef nonnull %4, ptr noundef null)
  %.not.i = icmp eq i32 %5, 0
  br i1 %.not.i, label %6, label %configset_find_element.exit

6:                                                ; preds = %2
  %7 = load ptr, ptr %4, align 8, !tbaa !17
  %8 = tail call i32 @strhash(ptr noundef %7) #30
  %9 = getelementptr inbounds nuw i8, ptr %3, i64 8
  store i32 %8, ptr %9, align 8, !tbaa !114
  store ptr null, ptr %3, align 8, !tbaa !115
  %10 = getelementptr inbounds nuw i8, ptr %3, i64 16
  store ptr %7, ptr %10, align 8, !tbaa !108
  %11 = call ptr @hashmap_get(ptr noundef %0, ptr noundef nonnull %3, ptr noundef null) #30
  call void @free(ptr noundef %7) #30
  %12 = icmp eq ptr %11, null
  %13 = zext i1 %12 to i32
  br label %configset_find_element.exit

configset_find_element.exit:                      ; preds = %2, %6
  %.0 = phi i32 [ %13, %6 ], [ %5, %2 ]
  call void @llvm.lifetime.end.p0(i64 8, ptr nonnull %4) #30
  call void @llvm.lifetime.end.p0(i64 64, ptr nonnull %3) #30
  ret i32 %.0
}